; Function Attrs: mustprogress uwtable
define noundef double @_ZNK8QuantLib15CPICouponPricer11accruedRateENS_4DateE(ptr nocapture noundef nonnull readonly align 8 dereferenceable(72) %this, i64 %settlementDate.coerce) unnamed_addr #8 align 2 {
entry:
  %gearing_ = getelementptr inbounds nuw i8, ptr %this, i64 56
  %0 = load double, ptr %gearing_, align 8, !tbaa !72
  %coupon_ = getelementptr inbounds nuw i8, ptr %this, i64 48
  %1 = load ptr, ptr %coupon_, align 8, !tbaa !91
  %call = tail call noundef double @_ZNK8QuantLib9CPICoupon10indexRatioENS_4DateE(ptr noundef nonnull align 8 dereferenceable(192) %1, i64 %settlementDate.coerce)
  %mul = fmul double %0, %call
  ret double %mul
}